(dp1
S'shenZhen'
p2
(dp3
S'longGangQu'
p4
(dp5
S'longChengGuangChang'
p6
(dp7
S'tel'
p8
S'0755-56984521'
p9
sS'addr'
p10
S'longChengLu'
p11
ssS'yuanShanGongYuan'
p12
(dp13
g8
S'0755-56231478'
p14
sg10
S'yuanShanLu'
p15
sssS'nanShanQu'
p16
(dp17
S'shiJieZhiChuang'
p18
(dp19
g8
S'0755-54718888'
p20
sg10
S'huaQiaoCheng'
p21
ssS'huanLeGu'
p22
(dp23
g8
S'0755-56874652'
p24
sg10
S'duJuanShan'
p25
sssS'fuTianQu'
p26
(dp27
S'lianHuaShan'
p28
(dp29
g8
S'0755-56871236'
p30
sg10
S'lianHuaLu'
p31
ssS'saiGe'
p32
(dp33
g8
S'0755-56878888'
p34
sg10
S'shenNanZhongLu'
p35
ssssS'guangZhou'
p36
(dp37
S'yueXiuQu'
p38
(dp39
S'yueXiuGongYuan'
p40
(dp41
g8
S'020-86195147'
p42
sg10
S'yueXiuLu'
p43
ssS'guangXiaoSi'
p44
(dp45
g8
S'020-86214521'
p46
sg10
S'guangXiaoLu'
p47
sssS'tianHeQu'
p48
(dp49
S'tianHeTiYuGuan'
p50
(dp51
g8
S'020-86231236'
p52
sg10
S'tianHeLu'
p53
ssS'jinSanDaXia'
p54
(dp55
g8
S'020-86211254'
p56
sg10
S'wuShanLu'
p57
sssS'panYuQu'
p58
(dp59
S'changLong'
p60
(dp61
g8
S'02086887777'
p62
sg10
S'yingBingLu88Hao'
p63
ssS'daFuShan'
p64
(dp65
g8
S'020-86652358'
p66
sg10
S'daShanLu'
p67
ssssS'foShan'
p68
(dp69
S'nanHai'
p70
(dp71
S'nanHaiYingShiCheng'
p72
(dp73
S'tel'
p74
S'0757-23698521'
p75
sS'addr'
p76
S'yingChengDaDao'
p77
sssS'shunDeQu'
p78
(dp79
S'xiShanMiao'
p80
(dp81
g8
S'0757-85233212'
p82
sg10
S'xiShanLu'
p83
ssS'qingHuiYuan'
p84
(dp85
g8
S'0757-85231452'
p86
sg10
S'qingHuiLu'
p87
ssssS'dongGuan'
p88
(dp89
S'dongCheng'
p90
(dp91
S'keYuan'
p92
(dp93
S'tel'
p94
S'0769-56987412'
p95
sS'addr'
p96
S'keYuanLu'
p97
ssss.